target datalayout = "e-m:e-p270:32:32-p271:32:32-p272:64:64-i64:64-i128:128-f80:128-n8:16:32:64-S128"
target triple = "x86_64-pc-linux-gnu"

%struct.lv_area_t = type { i32, i32, i32, i32 }
%struct.lv_color_t = type { i8, i8, i8 }
%struct._lv_draw_image_dsc_t = type { %struct.lv_draw_dsc_base_t, ptr, %struct.lv_image_header_t, i32, i32, i32, i32, i32, %struct.lv_point_t, %struct.lv_color_t, i8, i8, i8, ptr, %struct.lv_area_t, i32, ptr }
%struct.lv_draw_dsc_base_t = type { ptr, i32, i32, i32, ptr, i64, ptr }
%struct.lv_image_header_t = type <{ i64, i32 }>
%struct.lv_point_t = type { i32, i32 }
%struct._lv_draw_task_t = type { ptr, i32, %struct.lv_area_t, %struct.lv_area_t, %struct.lv_area_t, %struct.lv_area_t, i32, ptr, i8, i8 }
%struct._lv_layer_t = type { ptr, %struct.lv_area_t, i32, %struct.lv_area_t, %struct.lv_area_t, ptr, ptr, ptr, i8, ptr }

; Function Attrs: nounwind uwtable
define void @lv_draw_layer(ptr noundef %0, ptr noundef %1, ptr noundef %2) #0 {
  %4 = alloca ptr, align 8
  %5 = alloca ptr, align 8
  %6 = alloca ptr, align 8
  %7 = alloca ptr, align 8
  %8 = alloca ptr, align 8
  store ptr %0, ptr %4, align 8, !tbaa !3
  store ptr %1, ptr %5, align 8, !tbaa !3
  store ptr %2, ptr %6, align 8, !tbaa !3
  %9 = load ptr, ptr %5, align 8, !tbaa !3
  %10 = getelementptr inbounds nuw %struct._lv_draw_image_dsc_t, ptr %9, i32 0, i32 4
  %11 = load i32, ptr %10, align 8, !tbaa !19
  %12 = icmp sle i32 %11, 0
  br i1 %12, label %18, label %13

13:                                               ; preds = %3
  %14 = load ptr, ptr %5, align 8, !tbaa !3
  %15 = getelementptr inbounds nuw %struct._lv_draw_image_dsc_t, ptr %14, i32 0, i32 5
  %16 = load i32, ptr %15, align 4, !tbaa !20
  %17 = icmp sle i32 %16, 0
  br i1 %17, label %18, label %19

18:                                               ; preds = %13, %3
  br label %69

19:                                               ; preds = %13
  call void @llvm.lifetime.start.p0(i64 8, ptr %7) #5
  %20 = load ptr, ptr %4, align 8, !tbaa !3
  %21 = load ptr, ptr %6, align 8, !tbaa !3
  %22 = call ptr @lv_draw_add_task(ptr noundef %20, ptr noundef %21)
  store ptr %22, ptr %7, align 8, !tbaa !3
  %23 = call ptr @lv_malloc(i64 noundef 144)
  %24 = load ptr, ptr %7, align 8, !tbaa !3
  %25 = getelementptr inbounds nuw %struct._lv_draw_task_t, ptr %24, i32 0, i32 7
  store ptr %23, ptr %25, align 8, !tbaa !26
  %26 = load ptr, ptr %7, align 8, !tbaa !3
  %27 = getelementptr inbounds nuw %struct._lv_draw_task_t, ptr %26, i32 0, i32 7
  %28 = load ptr, ptr %27, align 8, !tbaa !26
  %29 = load ptr, ptr %5, align 8, !tbaa !3
  %30 = call ptr @lv_memcpy(ptr noundef %28, ptr noundef %29, i64 noundef 144)
  %31 = load ptr, ptr %7, align 8, !tbaa !3
  %32 = getelementptr inbounds nuw %struct._lv_draw_task_t, ptr %31, i32 0, i32 1
  store i32 6, ptr %32, align 8, !tbaa !24
  %33 = load ptr, ptr %7, align 8, !tbaa !3
  %34 = getelementptr inbounds nuw %struct._lv_draw_task_t, ptr %33, i32 0, i32 6
  store volatile i32 0, ptr %34, align 4, !tbaa !27
  %35 = load ptr, ptr %7, align 8, !tbaa !3
  %36 = getelementptr inbounds nuw %struct._lv_draw_task_t, ptr %35, i32 0, i32 3
  %37 = load ptr, ptr %6, align 8, !tbaa !3
  %38 = call i32 @lv_area_get_width(ptr noundef %37)
  %39 = load ptr, ptr %6, align 8, !tbaa !3
  %40 = call i32 @lv_area_get_height(ptr noundef %39)
  %41 = load ptr, ptr %5, align 8, !tbaa !3
  %42 = getelementptr inbounds nuw %struct._lv_draw_image_dsc_t, ptr %41, i32 0, i32 3
  %43 = load i32, ptr %42, align 4, !tbaa !28
  %44 = load ptr, ptr %5, align 8, !tbaa !3
  %45 = getelementptr inbounds nuw %struct._lv_draw_image_dsc_t, ptr %44, i32 0, i32 4
  %46 = load i32, ptr %45, align 8, !tbaa !19
  %47 = trunc i32 %46 to i16
  %48 = load ptr, ptr %5, align 8, !tbaa !3
  %49 = getelementptr inbounds nuw %struct._lv_draw_image_dsc_t, ptr %48, i32 0, i32 5
  %50 = load i32, ptr %49, align 4, !tbaa !20
  %51 = trunc i32 %50 to i16
  %52 = load ptr, ptr %5, align 8, !tbaa !3
  %53 = getelementptr inbounds nuw %struct._lv_draw_image_dsc_t, ptr %52, i32 0, i32 8
  call void @lv_image_buf_get_transformed_area(ptr noundef %36, i32 noundef %38, i32 noundef %40, i32 noundef %43, i16 noundef zeroext %47, i16 noundef zeroext %51, ptr noundef %53)
  %54 = load ptr, ptr %7, align 8, !tbaa !3
  %55 = getelementptr inbounds nuw %struct._lv_draw_task_t, ptr %54, i32 0, i32 3
  %56 = load ptr, ptr %6, align 8, !tbaa !3
  %57 = getelementptr inbounds nuw %struct.lv_area_t, ptr %56, i32 0, i32 0
  %58 = load i32, ptr %57, align 4, !tbaa !29
  %59 = load ptr, ptr %6, align 8, !tbaa !3
  %60 = getelementptr inbounds nuw %struct.lv_area_t, ptr %59, i32 0, i32 1
  %61 = load i32, ptr %60, align 4, !tbaa !30
  call void @lv_area_move(ptr noundef %55, i32 noundef %58, i32 noundef %61)
  call void @llvm.lifetime.start.p0(i64 8, ptr %8) #5
  %62 = load ptr, ptr %5, align 8, !tbaa !3
  %63 = getelementptr inbounds nuw %struct._lv_draw_image_dsc_t, ptr %62, i32 0, i32 1
  %64 = load ptr, ptr %63, align 8, !tbaa !31
  store ptr %64, ptr %8, align 8, !tbaa !3
  %65 = load ptr, ptr %8, align 8, !tbaa !3
  %66 = getelementptr inbounds nuw %struct._lv_layer_t, ptr %65, i32 0, i32 8
  store i8 1, ptr %66, align 8, !tbaa !32
  %67 = load ptr, ptr %4, align 8, !tbaa !3
  %68 = load ptr, ptr %7, align 8, !tbaa !3
  call void @lv_draw_finalize_task_creation(ptr noundef %67, ptr noundef %68)
  call void @llvm.lifetime.end.p0(i64 8, ptr %8) #5
  call void @llvm.lifetime.end.p0(i64 8, ptr %7) #5
  br label %69

69:                                               ; preds = %19, %18
  ret void
}