; Function Attrs: nounwind uwtable
define void @lv_draw_layer(ptr noundef %0, ptr noundef %1, ptr noundef %2) local_unnamed_addr #0 {
  %4 = getelementptr inbounds nuw i8, ptr %1, i64 72
  %5 = load i32, ptr %4, align 8, !tbaa !16
  %6 = icmp slt i32 %5, 1
  br i1 %6, label %34, label %7

7:                                                ; preds = %3
  %8 = getelementptr inbounds nuw i8, ptr %1, i64 76
  %9 = load i32, ptr %8, align 4, !tbaa !17
  %10 = icmp slt i32 %9, 1
  br i1 %10, label %34, label %11

11:                                               ; preds = %7
  %12 = tail call ptr @lv_draw_add_task(ptr noundef %0, ptr noundef %2) #6
  %13 = tail call ptr @lv_malloc(i64 noundef 144) #6
  %14 = getelementptr inbounds nuw i8, ptr %12, i64 80
  store ptr %13, ptr %14, align 8, !tbaa !22
  %15 = tail call ptr @lv_memcpy(ptr noundef %13, ptr noundef nonnull %1, i64 noundef 144) #6
  %16 = getelementptr inbounds nuw i8, ptr %12, i64 8
  store i32 6, ptr %16, align 8, !tbaa !20
  %17 = getelementptr inbounds nuw i8, ptr %12, i64 76
  store volatile i32 0, ptr %17, align 4, !tbaa !23
  %18 = getelementptr inbounds nuw i8, ptr %12, i64 28
  %19 = tail call i32 @lv_area_get_width(ptr noundef %2) #6
  %20 = tail call i32 @lv_area_get_height(ptr noundef %2) #6
  %21 = getelementptr inbounds nuw i8, ptr %1, i64 68
  %22 = load i32, ptr %21, align 4, !tbaa !24
  %23 = load i32, ptr %4, align 8, !tbaa !16
  %24 = trunc i32 %23 to i16
  %25 = load i32, ptr %8, align 4, !tbaa !17
  %26 = trunc i32 %25 to i16
  %27 = getelementptr inbounds nuw i8, ptr %1, i64 88
  tail call void @lv_image_buf_get_transformed_area(ptr noundef nonnull %18, i32 noundef %19, i32 noundef %20, i32 noundef %22, i16 noundef zeroext %24, i16 noundef zeroext %26, ptr noundef nonnull %27)
  %28 = load i32, ptr %2, align 4, !tbaa !25
  %29 = getelementptr inbounds nuw i8, ptr %2, i64 4
  %30 = load i32, ptr %29, align 4, !tbaa !26
  tail call void @lv_area_move(ptr noundef nonnull %18, i32 noundef %28, i32 noundef %30) #6
  %31 = getelementptr inbounds nuw i8, ptr %1, i64 48
  %32 = load ptr, ptr %31, align 8, !tbaa !27
  %33 = getelementptr inbounds nuw i8, ptr %32, i64 88
  store i8 1, ptr %33, align 8, !tbaa !28
  tail call void @lv_draw_finalize_task_creation(ptr noundef %0, ptr noundef %12) #6
  br label %34

34:                                               ; preds = %3, %7, %11
  ret void
}